target datalayout = "e-m:e-p270:32:32-p271:32:32-p272:64:64-i64:64-i128:128-f80:128-n8:16:32:64-S128"
target triple = "x86_64-pc-linux-gnu"

%"struct.std::_Rb_tree_header" = type { %"struct.std::_Rb_tree_node_base", i64 }
%"struct.std::_Rb_tree_node_base" = type { i32, ptr, ptr, ptr }
%"struct.casadi::IdasMemory" = type { %"struct.casadi::SundialsMemory.base", ptr, ptr, i32, double }
%"struct.casadi::SundialsMemory.base" = type <{ %"struct.casadi::IntegratorMemory", ptr, ptr, ptr, ptr, ptr, ptr, i8, [7 x i8], ptr, ptr, ptr, ptr, ptr, i64, i64, i64, i64, i32, i32, double, double, double, double, i64, i64, i64, i64, i64, i64, i32, i32, double, double, double, double, i64, i64, i64, i64, i64, i64, i64, i64, i32, [4 x i8], ptr, i32 }>
%"struct.casadi::IntegratorMemory" = type { %"struct.casadi::OracleMemory", ptr, ptr, ptr, ptr, ptr, ptr, ptr, ptr, ptr, ptr, ptr, ptr, ptr, ptr, ptr, ptr, i64, double, double, double, double, double, double, ptr, i8, i64, i64, i64 }
%"struct.casadi::OracleMemory" = type { %"struct.casadi::FunctionMemory", ptr, ptr, ptr, ptr, %"struct.casadi::casadi_oracle_data", %"class.std::vector.69" }
%"struct.casadi::FunctionMemory" = type { %"struct.casadi::ProtoFunctionMemory" }
%"struct.casadi::ProtoFunctionMemory" = type { %"class.std::map.64", ptr }
%"class.std::map.64" = type { %"class.std::_Rb_tree.65" }
%"class.std::_Rb_tree.65" = type { %"struct.std::_Rb_tree<std::__cxx11::basic_string<char>, std::pair<const std::__cxx11::basic_string<char>, casadi::FStats>, std::_Select1st<std::pair<const std::__cxx11::basic_string<char>, casadi::FStats>>, std::less<std::__cxx11::basic_string<char>>>::_Rb_tree_impl" }
%"struct.std::_Rb_tree<std::__cxx11::basic_string<char>, std::pair<const std::__cxx11::basic_string<char>, casadi::FStats>, std::_Select1st<std::pair<const std::__cxx11::basic_string<char>, casadi::FStats>>, std::less<std::__cxx11::basic_string<char>>>::_Rb_tree_impl" = type { [8 x i8], %"struct.std::_Rb_tree_header" }
%"struct.casadi::casadi_oracle_data" = type { ptr, ptr, ptr, ptr, ptr }
%"class.std::vector.69" = type { %"struct.std::_Vector_base.70" }
%"struct.std::_Vector_base.70" = type { %"struct.std::_Vector_base<casadi::LocalOracleMemory *, std::allocator<casadi::LocalOracleMemory *>>::_Vector_impl" }
%"struct.std::_Vector_base<casadi::LocalOracleMemory *, std::allocator<casadi::LocalOracleMemory *>>::_Vector_impl" = type { %"struct.std::_Vector_base<casadi::LocalOracleMemory *, std::allocator<casadi::LocalOracleMemory *>>::_Vector_impl_data" }
%"struct.std::_Vector_base<casadi::LocalOracleMemory *, std::allocator<casadi::LocalOracleMemory *>>::_Vector_impl_data" = type { ptr, ptr, ptr }
%struct._generic_N_Vector = type { ptr, ptr }
%struct._N_VectorContent_Serial = type { i64, i32, ptr }

@_ZTISt9exception = external constant ptr
@.str.129 = private unnamed_addr constant [17 x i8] c"psolveB failed: \00", align 1

; Function Attrs: mustprogress uwtable
define available_externally noundef nonnull align 8 dereferenceable(8) ptr @_ZNSolsEPFRSoS_E(ptr noundef nonnull align 8 dereferenceable(8) %0, ptr noundef %1) #6 align 2 {
  %3 = alloca ptr, align 8
  %4 = alloca ptr, align 8
  store ptr %0, ptr %3, align 8, !tbaa !185
  store ptr %1, ptr %4, align 8, !tbaa !45
  %5 = load ptr, ptr %3, align 8
  %6 = load ptr, ptr %4, align 8, !tbaa !45
  %7 = call noundef nonnull align 8 dereferenceable(8) ptr %6(ptr noundef nonnull align 8 dereferenceable(8) %5)
  ret ptr %7
}

; Function Attrs: mustprogress uwtable
define noundef i32 @_ZN6casadi13IdasInterface7psolveBEdP17_generic_N_VectorS2_S2_S2_S2_S2_S2_ddPvS2_(double noundef %0, ptr noundef %1, ptr noundef %2, ptr noundef %3, ptr noundef %4, ptr noundef %5, ptr noundef %6, ptr noundef %7, double noundef %8, double noundef %9, ptr noundef %10, ptr noundef %11) #6 align 2 personality ptr @__gxx_personality_v0 {
  %13 = alloca i32, align 4
  %14 = alloca double, align 8
  %15 = alloca ptr, align 8
  %16 = alloca ptr, align 8
  %17 = alloca ptr, align 8
  %18 = alloca ptr, align 8
  %19 = alloca ptr, align 8
  %20 = alloca ptr, align 8
  %21 = alloca ptr, align 8
  %22 = alloca double, align 8
  %23 = alloca double, align 8
  %24 = alloca ptr, align 8
  %25 = alloca ptr, align 8
  %26 = alloca ptr, align 8
  %27 = alloca ptr, align 8
  %28 = alloca i32, align 4
  %29 = alloca ptr, align 8
  %30 = alloca ptr, align 8
  store double %0, ptr %14, align 8, !tbaa !39
  store ptr %1, ptr %15, align 8, !tbaa !207
  store ptr %2, ptr %16, align 8, !tbaa !207
  store ptr %3, ptr %17, align 8, !tbaa !207
  store ptr %4, ptr %18, align 8, !tbaa !207
  store ptr %5, ptr %19, align 8, !tbaa !207
  store ptr %6, ptr %20, align 8, !tbaa !207
  store ptr %7, ptr %21, align 8, !tbaa !207
  store double %8, ptr %22, align 8, !tbaa !39
  store double %9, ptr %23, align 8, !tbaa !39
  store ptr %10, ptr %24, align 8, !tbaa !45
  store ptr %11, ptr %25, align 8, !tbaa !207
  call void @llvm.lifetime.start.p0(i64 8, ptr %26) #3
  %31 = load ptr, ptr %24, align 8, !tbaa !45
  %32 = invoke noundef ptr @_ZN6casadi13IdasInterface6to_memEPv(ptr noundef %31)
          to label %33 unwind label %62

33:                                               ; preds = %12
  store ptr %32, ptr %26, align 8, !tbaa !209
  call void @llvm.lifetime.start.p0(i64 8, ptr %29) #3
  %34 = load ptr, ptr %26, align 8, !tbaa !209
  %35 = getelementptr inbounds nuw %"struct.casadi::IdasMemory", ptr %34, i32 0, i32 1
  %36 = load ptr, ptr %35, align 8, !tbaa !211
  store ptr %36, ptr %29, align 8, !tbaa !50
  %37 = load ptr, ptr %29, align 8, !tbaa !50
  %38 = load ptr, ptr %26, align 8, !tbaa !209
  %39 = load double, ptr %14, align 8, !tbaa !39
  %40 = load ptr, ptr %15, align 8, !tbaa !207
  %41 = getelementptr inbounds nuw %struct._generic_N_Vector, ptr %40, i32 0, i32 0
  %42 = load ptr, ptr %41, align 8, !tbaa !229
  %43 = getelementptr inbounds nuw %struct._N_VectorContent_Serial, ptr %42, i32 0, i32 2
  %44 = load ptr, ptr %43, align 8, !tbaa !232
  %45 = load ptr, ptr %17, align 8, !tbaa !207
  %46 = getelementptr inbounds nuw %struct._generic_N_Vector, ptr %45, i32 0, i32 0
  %47 = load ptr, ptr %46, align 8, !tbaa !229
  %48 = getelementptr inbounds nuw %struct._N_VectorContent_Serial, ptr %47, i32 0, i32 2
  %49 = load ptr, ptr %48, align 8, !tbaa !232
  %50 = load ptr, ptr %20, align 8, !tbaa !207
  %51 = getelementptr inbounds nuw %struct._generic_N_Vector, ptr %50, i32 0, i32 0
  %52 = load ptr, ptr %51, align 8, !tbaa !229
  %53 = getelementptr inbounds nuw %struct._N_VectorContent_Serial, ptr %52, i32 0, i32 2
  %54 = load ptr, ptr %53, align 8, !tbaa !232
  %55 = load ptr, ptr %21, align 8, !tbaa !207
  %56 = getelementptr inbounds nuw %struct._generic_N_Vector, ptr %55, i32 0, i32 0
  %57 = load ptr, ptr %56, align 8, !tbaa !229
  %58 = getelementptr inbounds nuw %struct._N_VectorContent_Serial, ptr %57, i32 0, i32 2
  %59 = load ptr, ptr %58, align 8, !tbaa !232
  %60 = invoke noundef i32 @_ZNK6casadi13IdasInterface16solve_transposedEPNS_10IdasMemoryEdPKdS4_S4_Pd(ptr noundef nonnull align 8 dereferenceable(2272) %37, ptr noundef %38, double noundef %39, ptr noundef %44, ptr noundef %49, ptr noundef %54, ptr noundef %59)
          to label %61 unwind label %66

61:                                               ; preds = %33
  store i32 %60, ptr %13, align 4
  call void @llvm.lifetime.end.p0(i64 8, ptr %29) #3
  call void @llvm.lifetime.end.p0(i64 8, ptr %26) #3
  br label %97

62:                                               ; preds = %12
  %63 = landingpad { ptr, i32 }
          cleanup
          catch ptr @_ZTISt9exception
  %64 = extractvalue { ptr, i32 } %63, 0
  store ptr %64, ptr %27, align 8
  %65 = extractvalue { ptr, i32 } %63, 1
  store i32 %65, ptr %28, align 4
  br label %70

66:                                               ; preds = %33
  %67 = landingpad { ptr, i32 }
          cleanup
          catch ptr @_ZTISt9exception
  %68 = extractvalue { ptr, i32 } %67, 0
  store ptr %68, ptr %27, align 8
  %69 = extractvalue { ptr, i32 } %67, 1
  store i32 %69, ptr %28, align 4
  call void @llvm.lifetime.end.p0(i64 8, ptr %29) #3
  br label %70

70:                                               ; preds = %66, %62
  call void @llvm.lifetime.end.p0(i64 8, ptr %26) #3
  br label %71

71:                                               ; preds = %70
  %72 = load i32, ptr %28, align 4
  %73 = call i32 @llvm.eh.typeid.for.p0(ptr @_ZTISt9exception) #3
  %74 = icmp eq i32 %72, %73
  br i1 %74, label %75, label %99

75:                                               ; preds = %71
  call void @llvm.lifetime.start.p0(i64 8, ptr %30) #3
  %76 = load ptr, ptr %27, align 8
  %77 = call ptr @__cxa_begin_catch(ptr %76) #3
  store ptr %77, ptr %30, align 8
  %78 = invoke noundef nonnull align 8 dereferenceable(8) ptr @_ZN6casadi4uerrEv()
          to label %79 unwind label %91

79:                                               ; preds = %75
  %80 = invoke noundef nonnull align 8 dereferenceable(8) ptr @_ZStlsISt11char_traitsIcEERSt13basic_ostreamIcT_ES5_PKc(ptr noundef nonnull align 8 dereferenceable(8) %78, ptr noundef @.str.129)
          to label %81 unwind label %91

81:                                               ; preds = %79
  %82 = load ptr, ptr %30, align 8, !tbaa !234
  %83 = load ptr, ptr %82, align 8, !tbaa !52
  %84 = getelementptr inbounds ptr, ptr %83, i64 2
  %85 = load ptr, ptr %84, align 8
  %86 = call noundef ptr %85(ptr noundef nonnull align 8 dereferenceable(8) %82) #3
  %87 = invoke noundef nonnull align 8 dereferenceable(8) ptr @_ZStlsISt11char_traitsIcEERSt13basic_ostreamIcT_ES5_PKc(ptr noundef nonnull align 8 dereferenceable(8) %80, ptr noundef %86)
          to label %88 unwind label %91

88:                                               ; preds = %81
  %89 = invoke noundef nonnull align 8 dereferenceable(8) ptr @_ZNSolsEPFRSoS_E(ptr noundef nonnull align 8 dereferenceable(8) %87, ptr noundef @_ZSt4endlIcSt11char_traitsIcEERSt13basic_ostreamIT_T0_ES6_)
          to label %90 unwind label %91

90:                                               ; preds = %88
  store i32 -1, ptr %13, align 4
  call void @__cxa_end_catch()
  call void @llvm.lifetime.end.p0(i64 8, ptr %30) #3
  br label %97

91:                                               ; preds = %88, %81, %79, %75
  %92 = landingpad { ptr, i32 }
          cleanup
  %93 = extractvalue { ptr, i32 } %92, 0
  store ptr %93, ptr %27, align 8
  %94 = extractvalue { ptr, i32 } %92, 1
  store i32 %94, ptr %28, align 4
  invoke void @__cxa_end_catch()
          to label %95 unwind label %104

95:                                               ; preds = %91
  call void @llvm.lifetime.end.p0(i64 8, ptr %30) #3
  br label %99

96:                                               ; No predecessors!
  unreachable

97:                                               ; preds = %90, %61
  %98 = load i32, ptr %13, align 4
  ret i32 %98

99:                                               ; preds = %95, %71
  %100 = load ptr, ptr %27, align 8
  %101 = load i32, ptr %28, align 4
  %102 = insertvalue { ptr, i32 } poison, ptr %100, 0
  %103 = insertvalue { ptr, i32 } %102, i32 %101, 1
  resume { ptr, i32 } %103

104:                                              ; preds = %91
  %105 = landingpad { ptr, i32 }
          catch ptr null
  %106 = extractvalue { ptr, i32 } %105, 0
  call void @__clang_call_terminate(ptr %106) #21
  unreachable
}