; Function Attrs: mustprogress uwtable
define noundef range(i32 -1, 2) i32 @_ZN6casadi13IdasInterface7psolveBEdP17_generic_N_VectorS2_S2_S2_S2_S2_S2_ddPvS2_(double noundef %0, ptr noundef readonly captures(none) %1, ptr readnone captures(none) %2, ptr noundef readonly captures(none) %3, ptr readnone captures(none) %4, ptr readnone captures(none) %5, ptr noundef readonly captures(none) %6, ptr noundef readonly captures(none) %7, double %8, double %9, ptr noundef %10, ptr readnone captures(none) %11) #4 align 2 personality ptr @__gxx_personality_v0 {
  %13 = invoke noundef ptr @_ZN6casadi13IdasInterface6to_memEPv(ptr noundef %10)
          to label %14 unwind label %30

14:                                               ; preds = %12
  %15 = getelementptr inbounds nuw i8, ptr %13, i64 720
  %16 = load ptr, ptr %15, align 8, !tbaa !201
  %17 = load ptr, ptr %1, align 8, !tbaa !221
  %18 = getelementptr inbounds nuw i8, ptr %17, i64 16
  %19 = load ptr, ptr %18, align 8, !tbaa !224
  %20 = load ptr, ptr %3, align 8, !tbaa !221
  %21 = getelementptr inbounds nuw i8, ptr %20, i64 16
  %22 = load ptr, ptr %21, align 8, !tbaa !224
  %23 = load ptr, ptr %6, align 8, !tbaa !221
  %24 = getelementptr inbounds nuw i8, ptr %23, i64 16
  %25 = load ptr, ptr %24, align 8, !tbaa !224
  %26 = load ptr, ptr %7, align 8, !tbaa !221
  %27 = getelementptr inbounds nuw i8, ptr %26, i64 16
  %28 = load ptr, ptr %27, align 8, !tbaa !224
  %29 = invoke noundef i32 @_ZNK6casadi13IdasInterface16solve_transposedEPNS_10IdasMemoryEdPKdS4_S4_Pd(ptr noundef nonnull align 8 dereferenceable(2272) %16, ptr noundef nonnull %13, double noundef %0, ptr noundef %19, ptr noundef %22, ptr noundef %25, ptr noundef %28)
          to label %51 unwind label %32

30:                                               ; preds = %12
  %31 = landingpad { ptr, i32 }
          cleanup
          catch ptr @_ZTISt9exception
  br label %34

32:                                               ; preds = %14
  %33 = landingpad { ptr, i32 }
          cleanup
          catch ptr @_ZTISt9exception
  br label %34

34:                                               ; preds = %32, %30
  %.pn = phi { ptr, i32 } [ %33, %32 ], [ %31, %30 ]
  %.015 = extractvalue { ptr, i32 } %.pn, 1
  %35 = tail call i32 @llvm.eh.typeid.for.p0(ptr nonnull @_ZTISt9exception) #28
  %36 = icmp eq i32 %.015, %35
  br i1 %36, label %37, label %52

37:                                               ; preds = %34
  %.014 = extractvalue { ptr, i32 } %.pn, 0
  %38 = tail call ptr @__cxa_begin_catch(ptr %.014) #28
  %39 = invoke noundef nonnull align 8 dereferenceable(8) ptr @_ZN6casadi4uerrEv()
          to label %40 unwind label %49

40:                                               ; preds = %37
  %41 = invoke noundef nonnull align 8 dereferenceable(8) ptr @_ZSt16__ostream_insertIcSt11char_traitsIcEERSt13basic_ostreamIT_T0_ES6_PKS3_l(ptr noundef nonnull align 8 dereferenceable(8) %39, ptr noundef nonnull @.str.129, i64 noundef 16)
          to label %_ZStlsISt11char_traitsIcEERSt13basic_ostreamIcT_ES5_PKc.exit unwind label %49

_ZStlsISt11char_traitsIcEERSt13basic_ostreamIcT_ES5_PKc.exit: ; preds = %40
  %42 = load ptr, ptr %38, align 8, !tbaa !32
  %43 = getelementptr inbounds nuw i8, ptr %42, i64 16
  %44 = load ptr, ptr %43, align 8
  %45 = tail call noundef ptr %44(ptr noundef nonnull align 8 dereferenceable(8) %38) #28
  %46 = invoke noundef nonnull align 8 dereferenceable(8) ptr @_ZStlsISt11char_traitsIcEERSt13basic_ostreamIcT_ES5_PKc(ptr noundef nonnull align 8 dereferenceable(8) %39, ptr noundef %45)
          to label %47 unwind label %49

47:                                               ; preds = %_ZStlsISt11char_traitsIcEERSt13basic_ostreamIcT_ES5_PKc.exit
  %48 = invoke noundef nonnull align 8 dereferenceable(8) ptr @_ZSt4endlIcSt11char_traitsIcEERSt13basic_ostreamIT_T0_ES6_(ptr noundef nonnull align 8 dereferenceable(8) %46)
          to label %_ZNSolsEPFRSoS_E.exit unwind label %49

_ZNSolsEPFRSoS_E.exit:                            ; preds = %47
  tail call void @__cxa_end_catch()
  br label %51

49:                                               ; preds = %47, %40, %_ZStlsISt11char_traitsIcEERSt13basic_ostreamIcT_ES5_PKc.exit, %37
  %50 = landingpad { ptr, i32 }
          cleanup
  invoke void @__cxa_end_catch()
          to label %52 unwind label %53

51:                                               ; preds = %14, %_ZNSolsEPFRSoS_E.exit
  %.0 = phi i32 [ -1, %_ZNSolsEPFRSoS_E.exit ], [ %29, %14 ]
  ret i32 %.0

52:                                               ; preds = %49, %34
  %.merged = phi { ptr, i32 } [ %.pn, %34 ], [ %50, %49 ]
  resume { ptr, i32 } %.merged

53:                                               ; preds = %49
  %54 = landingpad { ptr, i32 }
          catch ptr null
  %55 = extractvalue { ptr, i32 } %54, 0
  tail call void @__clang_call_terminate(ptr %55) #31
  unreachable
}